target datalayout = "e-m:e-p270:32:32-p271:32:32-p272:64:64-i64:64-i128:128-f80:128-n8:16:32:64-S128"
target triple = "x86_64-pc-linux-gnu"

%struct.FunctionCallInfoBaseData = type { ptr, ptr, ptr, i32, i8, i16, [0 x %struct.NullableDatum] }
%struct.NullableDatum = type { i64, i8 }
%struct.varattrib_1b = type { i8, [0 x i8] }
%struct.anon = type { i32, [0 x i8] }
%struct.varattrib_1b_e = type { i8, i8, [0 x i8] }

; Function Attrs: inlinehint nounwind uwtable
define internal i64 @Int64GetDatum(i64 noundef %0) #2 {
  %2 = alloca i64, align 8
  store i64 %0, ptr %2, align 8
  %3 = load i64, ptr %2, align 8
  ret i64 %3
}

; Function Attrs: inlinehint nounwind uwtable
define internal i64 @LSNGetDatum(i64 noundef %0) #2 {
  %2 = alloca i64, align 8
  store i64 %0, ptr %2, align 8
  %3 = load i64, ptr %2, align 8
  %4 = call i64 @Int64GetDatum(i64 noundef %3)
  ret i64 %4
}

; Function Attrs: inlinehint nounwind uwtable
define internal ptr @DatumGetPointer(i64 noundef %0) #2 {
  %2 = alloca i64, align 8
  store i64 %0, ptr %2, align 8
  %3 = load i64, ptr %2, align 8
  %4 = inttoptr i64 %3 to ptr
  ret ptr %4
}

; Function Attrs: inlinehint nounwind uwtable
define internal zeroext i1 @DatumGetBool(i64 noundef %0) #2 {
  %2 = alloca i64, align 8
  store i64 %0, ptr %2, align 8
  %3 = load i64, ptr %2, align 8
  %4 = icmp ne i64 %3, 0
  ret i1 %4
}

; Function Attrs: nounwind uwtable
define dso_local i64 @pg_logical_emit_message_bytea(ptr noundef %0) #0 {
  %2 = alloca ptr, align 8
  %3 = alloca i8, align 1
  %4 = alloca ptr, align 8
  %5 = alloca ptr, align 8
  %6 = alloca i8, align 1
  %7 = alloca i64, align 8
  store ptr %0, ptr %2, align 8
  call void @llvm.lifetime.start.p0(i64 1, ptr %3) #9
  %8 = load ptr, ptr %2, align 8
  %9 = getelementptr inbounds nuw %struct.FunctionCallInfoBaseData, ptr %8, i32 0, i32 6
  %10 = getelementptr inbounds [0 x %struct.NullableDatum], ptr %9, i64 0, i64 0
  %11 = getelementptr inbounds nuw %struct.NullableDatum, ptr %10, i32 0, i32 0
  %12 = load i64, ptr %11, align 8
  %13 = call zeroext i1 @DatumGetBool(i64 noundef %12)
  %14 = zext i1 %13 to i8
  store i8 %14, ptr %3, align 1
  call void @llvm.lifetime.start.p0(i64 8, ptr %4) #9
  %15 = load ptr, ptr %2, align 8
  %16 = getelementptr inbounds nuw %struct.FunctionCallInfoBaseData, ptr %15, i32 0, i32 6
  %17 = getelementptr inbounds [0 x %struct.NullableDatum], ptr %16, i64 0, i64 1
  %18 = getelementptr inbounds nuw %struct.NullableDatum, ptr %17, i32 0, i32 0
  %19 = load i64, ptr %18, align 8
  %20 = call ptr @DatumGetPointer(i64 noundef %19)
  %21 = call ptr @pg_detoast_datum_packed(ptr noundef %20)
  %22 = call ptr @text_to_cstring(ptr noundef %21)
  store ptr %22, ptr %4, align 8
  call void @llvm.lifetime.start.p0(i64 8, ptr %5) #9
  %23 = load ptr, ptr %2, align 8
  %24 = getelementptr inbounds nuw %struct.FunctionCallInfoBaseData, ptr %23, i32 0, i32 6
  %25 = getelementptr inbounds [0 x %struct.NullableDatum], ptr %24, i64 0, i64 2
  %26 = getelementptr inbounds nuw %struct.NullableDatum, ptr %25, i32 0, i32 0
  %27 = load i64, ptr %26, align 8
  %28 = call ptr @DatumGetPointer(i64 noundef %27)
  %29 = call ptr @pg_detoast_datum_packed(ptr noundef %28)
  store ptr %29, ptr %5, align 8
  call void @llvm.lifetime.start.p0(i64 1, ptr %6) #9
  %30 = load ptr, ptr %2, align 8
  %31 = getelementptr inbounds nuw %struct.FunctionCallInfoBaseData, ptr %30, i32 0, i32 6
  %32 = getelementptr inbounds [0 x %struct.NullableDatum], ptr %31, i64 0, i64 3
  %33 = getelementptr inbounds nuw %struct.NullableDatum, ptr %32, i32 0, i32 0
  %34 = load i64, ptr %33, align 8
  %35 = call zeroext i1 @DatumGetBool(i64 noundef %34)
  %36 = zext i1 %35 to i8
  store i8 %36, ptr %6, align 1
  call void @llvm.lifetime.start.p0(i64 8, ptr %7) #9
  %37 = load ptr, ptr %4, align 8
  %38 = load ptr, ptr %5, align 8
  %39 = getelementptr inbounds nuw %struct.varattrib_1b, ptr %38, i32 0, i32 0
  %40 = load i8, ptr %39, align 1
  %41 = zext i8 %40 to i32
  %42 = and i32 %41, 1
  %43 = icmp eq i32 %42, 1
  br i1 %43, label %44, label %48

44:                                               ; preds = %1
  %45 = load ptr, ptr %5, align 8
  %46 = getelementptr inbounds nuw %struct.varattrib_1b, ptr %45, i32 0, i32 1
  %47 = getelementptr inbounds [0 x i8], ptr %46, i64 0, i64 0
  br label %52

48:                                               ; preds = %1
  %49 = load ptr, ptr %5, align 8
  %50 = getelementptr inbounds nuw %struct.anon, ptr %49, i32 0, i32 1
  %51 = getelementptr inbounds [0 x i8], ptr %50, i64 0, i64 0
  br label %52

52:                                               ; preds = %48, %44
  %53 = phi ptr [ %47, %44 ], [ %51, %48 ]
  %54 = load ptr, ptr %5, align 8
  %55 = getelementptr inbounds nuw %struct.varattrib_1b, ptr %54, i32 0, i32 0
  %56 = load i8, ptr %55, align 1
  %57 = zext i8 %56 to i32
  %58 = icmp eq i32 %57, 1
  br i1 %58, label %59, label %87

59:                                               ; preds = %52
  %60 = load ptr, ptr %5, align 8
  %61 = getelementptr inbounds nuw %struct.varattrib_1b_e, ptr %60, i32 0, i32 1
  %62 = load i8, ptr %61, align 1
  %63 = zext i8 %62 to i32
  %64 = icmp eq i32 %63, 1
  br i1 %64, label %65, label %66

65:                                               ; preds = %59
  br label %83

66:                                               ; preds = %59
  %67 = load ptr, ptr %5, align 8
  %68 = getelementptr inbounds nuw %struct.varattrib_1b_e, ptr %67, i32 0, i32 1
  %69 = load i8, ptr %68, align 1
  %70 = zext i8 %69 to i32
  %71 = and i32 %70, -2
  %72 = icmp eq i32 %71, 2
  br i1 %72, label %73, label %74

73:                                               ; preds = %66
  br label %81

74:                                               ; preds = %66
  %75 = load ptr, ptr %5, align 8
  %76 = getelementptr inbounds nuw %struct.varattrib_1b_e, ptr %75, i32 0, i32 1
  %77 = load i8, ptr %76, align 1
  %78 = zext i8 %77 to i32
  %79 = icmp eq i32 %78, 18
  %80 = select i1 %79, i64 16, i64 0
  br label %81

81:                                               ; preds = %74, %73
  %82 = phi i64 [ 8, %73 ], [ %80, %74 ]
  br label %83

83:                                               ; preds = %81, %65
  %84 = phi i64 [ 8, %65 ], [ %82, %81 ]
  %85 = add i64 2, %84
  %86 = sub i64 %85, 2
  br label %113

87:                                               ; preds = %52
  %88 = load ptr, ptr %5, align 8
  %89 = getelementptr inbounds nuw %struct.varattrib_1b, ptr %88, i32 0, i32 0
  %90 = load i8, ptr %89, align 1
  %91 = zext i8 %90 to i32
  %92 = and i32 %91, 1
  %93 = icmp eq i32 %92, 1
  br i1 %93, label %94, label %103

94:                                               ; preds = %87
  %95 = load ptr, ptr %5, align 8
  %96 = getelementptr inbounds nuw %struct.varattrib_1b, ptr %95, i32 0, i32 0
  %97 = load i8, ptr %96, align 1
  %98 = zext i8 %97 to i32
  %99 = ashr i32 %98, 1
  %100 = and i32 %99, 127
  %101 = sext i32 %100 to i64
  %102 = sub i64 %101, 1
  br label %111

103:                                              ; preds = %87
  %104 = load ptr, ptr %5, align 8
  %105 = getelementptr inbounds nuw %struct.anon, ptr %104, i32 0, i32 0
  %106 = load i32, ptr %105, align 4
  %107 = lshr i32 %106, 2
  %108 = and i32 %107, 1073741823
  %109 = sub i32 %108, 4
  %110 = zext i32 %109 to i64
  br label %111

111:                                              ; preds = %103, %94
  %112 = phi i64 [ %102, %94 ], [ %110, %103 ]
  br label %113

113:                                              ; preds = %111, %83
  %114 = phi i64 [ %86, %83 ], [ %112, %111 ]
  %115 = load i8, ptr %3, align 1, !range !4, !noundef !5
  %116 = trunc i8 %115 to i1
  %117 = load i8, ptr %6, align 1, !range !4, !noundef !5
  %118 = trunc i8 %117 to i1
  %119 = call i64 @LogLogicalMessage(ptr noundef %37, ptr noundef %53, i64 noundef %114, i1 noundef zeroext %116, i1 noundef zeroext %118)
  store i64 %119, ptr %7, align 8
  %120 = load i64, ptr %7, align 8
  %121 = call i64 @LSNGetDatum(i64 noundef %120)
  call void @llvm.lifetime.end.p0(i64 8, ptr %7) #9
  call void @llvm.lifetime.end.p0(i64 1, ptr %6) #9
  call void @llvm.lifetime.end.p0(i64 8, ptr %5) #9
  call void @llvm.lifetime.end.p0(i64 8, ptr %4) #9
  call void @llvm.lifetime.end.p0(i64 1, ptr %3) #9
  ret i64 %121
}